target datalayout = "e-m:e-p270:32:32-p271:32:32-p272:64:64-i64:64-i128:128-f80:128-n8:16:32:64-S128"
target triple = "x86_64-pc-linux-gnu"

@rb_eArgError = external global i64, align 8
@.str.154 = private unnamed_addr constant [26 x i8] c"two digits %s is expected\00", align 1
@.str.155 = private unnamed_addr constant [12 x i8] c" after '%c'\00", align 1
@.str.156 = private unnamed_addr constant [7 x i8] c": %.*s\00", align 1

; Function Attrs: inlinehint nounwind sspstrong willreturn memory(none) uwtable
define internal i32 @rb_isdigit(i32 noundef %0) #5 {
  %2 = alloca i32, align 4
  store i32 %0, ptr %2, align 4, !tbaa !20
  %3 = load i32, ptr %2, align 4, !tbaa !20
  %4 = icmp sle i32 48, %3
  br i1 %4, label %5, label %8

5:                                                ; preds = %1
  %6 = load i32, ptr %2, align 4, !tbaa !20
  %7 = icmp sle i32 %6, 57
  br label %8

8:                                                ; preds = %5, %1
  %9 = phi i1 [ false, %1 ], [ %7, %5 ]
  %10 = zext i1 %9 to i32
  ret i32 %10
}

; Function Attrs: nounwind sspstrong uwtable
define internal i32 @two_digits(ptr noundef %0, ptr noundef %1, ptr noundef %2, ptr noundef %3) #0 {
  %5 = alloca ptr, align 8
  %6 = alloca ptr, align 8
  %7 = alloca ptr, align 8
  %8 = alloca ptr, align 8
  %9 = alloca i64, align 8
  %10 = alloca i64, align 8
  store ptr %0, ptr %5, align 8, !tbaa !25
  store ptr %1, ptr %6, align 8, !tbaa !25
  store ptr %2, ptr %7, align 8, !tbaa !125
  store ptr %3, ptr %8, align 8, !tbaa !25
  call void @llvm.lifetime.start.p0(i64 8, ptr %9) #22
  %11 = load ptr, ptr %6, align 8, !tbaa !25
  %12 = load ptr, ptr %5, align 8, !tbaa !25
  %13 = ptrtoint ptr %11 to i64
  %14 = ptrtoint ptr %12 to i64
  %15 = sub i64 %13, %14
  store i64 %15, ptr %9, align 8, !tbaa !11
  %16 = load i64, ptr %9, align 8, !tbaa !11
  %17 = icmp slt i64 %16, 2
  br i1 %17, label %42, label %18

18:                                               ; preds = %4
  %19 = load ptr, ptr %5, align 8, !tbaa !25
  %20 = getelementptr i8, ptr %19, i64 0
  %21 = load i8, ptr %20, align 1, !tbaa !37
  %22 = sext i8 %21 to i32
  %23 = call i32 @rb_isdigit(i32 noundef %22) #24
  %24 = icmp ne i32 %23, 0
  br i1 %24, label %25, label %42

25:                                               ; preds = %18
  %26 = load ptr, ptr %5, align 8, !tbaa !25
  %27 = getelementptr i8, ptr %26, i64 1
  %28 = load i8, ptr %27, align 1, !tbaa !37
  %29 = sext i8 %28 to i32
  %30 = call i32 @rb_isdigit(i32 noundef %29) #24
  %31 = icmp ne i32 %30, 0
  br i1 %31, label %32, label %42

32:                                               ; preds = %25
  %33 = load i64, ptr %9, align 8, !tbaa !11
  %34 = icmp sgt i64 %33, 2
  br i1 %34, label %35, label %84

35:                                               ; preds = %32
  %36 = load ptr, ptr %5, align 8, !tbaa !25
  %37 = getelementptr i8, ptr %36, i64 2
  %38 = load i8, ptr %37, align 1, !tbaa !37
  %39 = sext i8 %38 to i32
  %40 = call i32 @rb_isdigit(i32 noundef %39) #24
  %41 = icmp ne i32 %40, 0
  br i1 %41, label %42, label %84

42:                                               ; preds = %35, %25, %18, %4
  call void @llvm.lifetime.start.p0(i64 8, ptr %10) #22
  %43 = load ptr, ptr %8, align 8, !tbaa !25
  %44 = call i64 (ptr, ...) @rb_sprintf(ptr noundef @.str.154, ptr noundef %43)
  store i64 %44, ptr %10, align 8, !tbaa !11
  %45 = load ptr, ptr %5, align 8, !tbaa !25
  %46 = getelementptr i8, ptr %45, i64 -1
  %47 = load i8, ptr %46, align 1, !tbaa !37
  %48 = sext i8 %47 to i32
  %49 = icmp eq i32 %48, 45
  br i1 %49, label %56, label %50

50:                                               ; preds = %42
  %51 = load ptr, ptr %5, align 8, !tbaa !25
  %52 = getelementptr i8, ptr %51, i64 -1
  %53 = load i8, ptr %52, align 1, !tbaa !37
  %54 = sext i8 %53 to i32
  %55 = icmp eq i32 %54, 58
  br i1 %55, label %56, label %63

56:                                               ; preds = %50, %42
  %57 = load i64, ptr %10, align 8, !tbaa !11
  %58 = load ptr, ptr %5, align 8, !tbaa !25
  %59 = getelementptr i8, ptr %58, i64 -1
  %60 = load i8, ptr %59, align 1, !tbaa !37
  %61 = sext i8 %60 to i32
  %62 = call i64 (i64, ptr, ...) @rb_str_catf(i64 noundef %57, ptr noundef @.str.155, i32 noundef %61)
  br label %63

63:                                               ; preds = %56, %50
  %64 = load i64, ptr %10, align 8, !tbaa !11
  %65 = load i64, ptr %9, align 8, !tbaa !11
  %66 = icmp sgt i64 %65, 10
  br i1 %66, label %67, label %68

67:                                               ; preds = %63
  br label %75

68:                                               ; preds = %63
  %69 = load ptr, ptr %6, align 8, !tbaa !25
  %70 = load ptr, ptr %5, align 8, !tbaa !25
  %71 = ptrtoint ptr %69 to i64
  %72 = ptrtoint ptr %70 to i64
  %73 = sub i64 %71, %72
  %74 = trunc i64 %73 to i32
  br label %75

75:                                               ; preds = %68, %67
  %76 = phi i32 [ 10, %67 ], [ %74, %68 ]
  %77 = add i32 %76, 1
  %78 = load ptr, ptr %5, align 8, !tbaa !25
  %79 = getelementptr i8, ptr %78, i64 -1
  %80 = call i64 (i64, ptr, ...) @rb_str_catf(i64 noundef %64, ptr noundef @.str.156, i32 noundef %77, ptr noundef %79)
  %81 = load i64, ptr @rb_eArgError, align 8, !tbaa !11
  %82 = load i64, ptr %10, align 8, !tbaa !11
  %83 = call i64 @rb_exc_new_str(i64 noundef %81, i64 noundef %82)
  call void @rb_exc_raise(i64 noundef %83) #23
  unreachable

84:                                               ; preds = %35, %32
  %85 = load ptr, ptr %5, align 8, !tbaa !25
  %86 = getelementptr i8, ptr %85, i64 2
  %87 = load ptr, ptr %7, align 8, !tbaa !125
  store ptr %86, ptr %87, align 8, !tbaa !25
  %88 = load ptr, ptr %5, align 8, !tbaa !25
  %89 = getelementptr i8, ptr %88, i64 0
  %90 = load i8, ptr %89, align 1, !tbaa !37
  %91 = sext i8 %90 to i32
  %92 = mul i32 %91, 10
  %93 = load ptr, ptr %5, align 8, !tbaa !25
  %94 = getelementptr i8, ptr %93, i64 1
  %95 = load i8, ptr %94, align 1, !tbaa !37
  %96 = sext i8 %95 to i32
  %97 = add i32 %92, %96
  %98 = sub i32 %97, 528
  call void @llvm.lifetime.end.p0(i64 8, ptr %9) #22
  ret i32 %98
}