; Function Attrs: nounwind sspstrong uwtable
define internal fastcc range(i32 -1936, 870) i32 @two_digits(ptr noundef %0, ptr noundef %1, ptr noundef nonnull writeonly captures(none) %2, ptr noundef %3) unnamed_addr #1 {
  %5 = ptrtoint ptr %1 to i64
  %6 = ptrtoint ptr %0 to i64
  %7 = sub i64 %5, %6
  %8 = icmp slt i64 %7, 2
  br i1 %8, label %27, label %9

9:                                                ; preds = %4
  %10 = load i8, ptr %0, align 1, !tbaa !54
  %11 = sext i8 %10 to i32
  %12 = add nsw i32 %11, -58
  %13 = icmp ult i32 %12, -10
  br i1 %13, label %27, label %14

14:                                               ; preds = %9
  %15 = getelementptr i8, ptr %0, i64 1
  %16 = load i8, ptr %15, align 1, !tbaa !54
  %17 = sext i8 %16 to i32
  %18 = add nsw i32 %17, -58
  %19 = icmp ult i32 %18, -10
  br i1 %19, label %27, label %20

20:                                               ; preds = %14
  %.not23 = icmp eq i64 %7, 2
  br i1 %.not23, label %41, label %21

21:                                               ; preds = %20
  %22 = getelementptr i8, ptr %0, i64 2
  %23 = load i8, ptr %22, align 1, !tbaa !54
  %24 = sext i8 %23 to i32
  %25 = add nsw i32 %24, -58
  %26 = icmp ult i32 %25, -10
  br i1 %26, label %41, label %27

27:                                               ; preds = %21, %14, %9, %4
  %28 = tail call i64 (ptr, ...) @rb_sprintf(ptr noundef nonnull @.str.154, ptr noundef %3) #21
  %29 = getelementptr i8, ptr %0, i64 -1
  %30 = load i8, ptr %29, align 1, !tbaa !54
  switch i8 %30, label %34 [
    i8 45, label %31
    i8 58, label %31
  ]

31:                                               ; preds = %27, %27
  %32 = zext nneg i8 %30 to i32
  %33 = tail call i64 (i64, ptr, ...) @rb_str_catf(i64 noundef %28, ptr noundef nonnull @.str.155, i32 noundef %32) #21
  br label %34

34:                                               ; preds = %27, %31
  %35 = tail call i64 @llvm.smin.i64(i64 %7, i64 10)
  %36 = trunc i64 %35 to i32
  %37 = add i32 %36, 1
  %38 = tail call i64 (i64, ptr, ...) @rb_str_catf(i64 noundef %28, ptr noundef nonnull @.str.156, i32 noundef %37, ptr noundef nonnull %29) #21
  %39 = load i64, ptr @rb_eArgError, align 8, !tbaa !11
  %40 = tail call i64 @rb_exc_new_str(i64 noundef %39, i64 noundef %28) #21
  tail call void @rb_exc_raise(i64 noundef %40) #22
  unreachable

41:                                               ; preds = %21, %20
  %42 = getelementptr i8, ptr %0, i64 2
  store ptr %42, ptr %2, align 8, !tbaa !95
  %43 = load i8, ptr %0, align 1, !tbaa !54
  %44 = sext i8 %43 to i32
  %45 = mul nsw i32 %44, 10
  %46 = load i8, ptr %15, align 1, !tbaa !54
  %47 = sext i8 %46 to i32
  %48 = add nsw i32 %47, -528
  %49 = add nsw i32 %48, %45
  ret i32 %49
}